; Function Attrs: nounwind sspstrong uwtable
define dso_local void @helper_itrigger_match(ptr noundef %env) local_unnamed_addr #0 {
entry:
  %tdata1.i = getelementptr inbounds nuw i8, ptr %env, i64 8360
  %0 = getelementptr i8, ptr %env, i64 5008
  %virt_enabled.i = getelementptr inbounds nuw i8, ptr %env, i64 5056
  %priv.i = getelementptr inbounds nuw i8, ptr %env, i64 5048
  %itrigger_enabled = getelementptr inbounds nuw i8, ptr %env, i64 8464
  br label %for.body

for.body:                                         ; preds = %entry, %for.inc
  %cmp = phi i1 [ true, %entry ], [ false, %for.inc ]
  %indvars.iv = phi i64 [ 0, %entry ], [ 1, %for.inc ]
  %arrayidx.i = getelementptr [2 x i64], ptr %tdata1.i, i64 0, i64 %indvars.iv
  %1 = load i64, ptr %arrayidx.i, align 8
  %env.val.i = load i32, ptr %0, align 16
  switch i32 %env.val.i, label %do.body.i.i [
    i32 1, label %sw.bb.i.i
    i32 2, label %sw.bb3.i.i
    i32 3, label %sw.bb3.i.i
  ]

sw.bb.i.i:                                        ; preds = %for.body
  %shr.i.i.i = lshr i64 %1, 28
  %conv2.i.i = and i64 %shr.i.i.i, 15
  br label %get_trigger_type.exit

sw.bb3.i.i:                                       ; preds = %for.body, %for.body
  %shr.i2.i.i = lshr i64 %1, 60
  br label %get_trigger_type.exit

do.body.i.i:                                      ; preds = %for.body
  tail call void @g_assertion_message_expr(ptr noundef null, ptr noundef nonnull @.str, i32 noundef 87, ptr noundef nonnull @__func__.extract_trigger_type, ptr noundef null) #7
  unreachable

get_trigger_type.exit:                            ; preds = %sw.bb.i.i, %sw.bb3.i.i
  %retval.0.i.i = phi i64 [ %shr.i2.i.i, %sw.bb3.i.i ], [ %conv2.i.i, %sw.bb.i.i ]
  %cmp1.not = icmp eq i64 %retval.0.i.i, 3
  br i1 %cmp1.not, label %if.end, label %for.inc

if.end:                                           ; preds = %get_trigger_type.exit
  %2 = load i8, ptr %virt_enabled.i, align 16
  %tobool.i = trunc i8 %2 to i1
  %3 = load i64, ptr %priv.i, align 8
  br i1 %tobool.i, label %if.then.i, label %if.else.i

if.then.i:                                        ; preds = %if.end
  %and.i = lshr i64 %1, 26
  %div15.i = and i64 %and.i, 1
  %cmp.i = icmp eq i64 %div15.i, %3
  %and2.i = lshr i64 %1, 25
  %div316.i = and i64 %and2.i, 1
  %cmp5.i = icmp eq i64 %div316.i, %3
  %4 = select i1 %cmp.i, i1 true, i1 %cmp5.i
  br i1 %4, label %for.inc, label %if.end5

if.else.i:                                        ; preds = %if.end
  %and6.i = lshr i64 %1, 9
  %div712.i = and i64 %and6.i, 1
  %cmp9.i = icmp eq i64 %div712.i, %3
  br i1 %cmp9.i, label %for.inc, label %lor.lhs.false.i

lor.lhs.false.i:                                  ; preds = %if.else.i
  %and10.i = lshr i64 %1, 7
  %div1113.i = and i64 %and10.i, 1
  %cmp13.i = icmp eq i64 %div1113.i, %3
  br i1 %cmp13.i, label %for.inc, label %check_itrigger_priv.exit

check_itrigger_priv.exit:                         ; preds = %lor.lhs.false.i
  %and15.i = lshr i64 %1, 6
  %div1614.i = and i64 %and15.i, 1
  %cmp18.i = icmp eq i64 %div1614.i, %3
  br i1 %cmp18.i, label %for.inc, label %if.end5

if.end5:                                          ; preds = %if.then.i, %check_itrigger_priv.exit
  %5 = trunc i64 %1 to i32
  %6 = lshr i32 %5, 10
  %conv.i = and i32 %6, 16383
  %tobool.not = icmp eq i32 %conv.i, 0
  br i1 %tobool.not, label %for.inc, label %if.end8

if.end8:                                          ; preds = %if.end5
  %and.i22 = and i64 %1, -16776193
  %7 = shl nuw nsw i32 %conv.i, 10
  %mul.i = zext nneg i32 %7 to i64
  %or.i = or disjoint i64 %and.i22, %mul.i
  store i64 %or.i, ptr %arrayidx.i, align 8
  %tobool9.not = icmp eq i32 %conv.i, 1
  br i1 %tobool9.not, label %if.then10, label %for.inc

if.then10:                                        ; preds = %if.end8
  %call11 = tail call zeroext i1 @riscv_itrigger_enabled(ptr noundef nonnull %env)
  %frombool = zext i1 %call11 to i8
  store i8 %frombool, ptr %itrigger_enabled, align 16
  tail call fastcc void @do_trigger_action(ptr noundef nonnull %env, i64 noundef %indvars.iv)
  br label %for.inc

for.inc:                                          ; preds = %if.else.i, %lor.lhs.false.i, %if.then.i, %if.end8, %if.then10, %if.end5, %check_itrigger_priv.exit, %get_trigger_type.exit
  br i1 %cmp, label %for.body, label %for.end, !llvm.loop !7

for.end:                                          ; preds = %for.inc
  ret void
}